target datalayout = "e-m:e-p270:32:32-p271:32:32-p272:64:64-i64:64-i128:128-f80:128-n8:16:32:64-S128"
target triple = "x86_64-pc-linux-gnu"

%"class.std::chrono::duration" = type { i64 }
%"class.google::LogMessageFatal" = type { %"class.google::LogMessage" }
%"class.google::LogMessage" = type { ptr, ptr, %"struct.google::LogMessageTime" }
%"struct.google::LogMessageTime" = type { %struct.tm, %"class.std::chrono::time_point", %"class.std::chrono::duration.23", %"class.std::chrono::duration.24" }
%struct.tm = type { i32, i32, i32, i32, i32, i32, i32, i32, i32, i64, ptr }
%"class.std::chrono::time_point" = type { %"class.std::chrono::duration" }
%"class.std::chrono::duration.23" = type { i64 }
%"class.std::chrono::duration.24" = type { i64 }
%"struct.google::logging::internal::LogMessageVoidify" = type { i8 }

@.str.32 = private unnamed_addr constant [111 x i8] c"generated/home/dtcxzyw/WorkSpace/Projects/compilers/llvm-opt-benchmark/bench/glog/glog/src/logging_unittest.cc\00", align 1
@_ZL1x = internal global i32 -1, align 4
@.str.217 = private unnamed_addr constant [22 x i8] c"Check failed: n >= x \00", align 1

; Function Attrs: mustprogress nounwind uwtable
define linkonce_odr hidden void @_ZN6google7logging8internal17LogMessageVoidifyanERSo(ptr noundef nonnull align 1 dereferenceable(1) %0, ptr noundef nonnull align 8 dereferenceable(8) %1) #5 comdat align 2 {
  %3 = alloca ptr, align 8
  %4 = alloca ptr, align 8
  store ptr %0, ptr %3, align 8
  store ptr %1, ptr %4, align 8
  ret void
}

; Function Attrs: mustprogress uwtable
define internal void @_ZL9BM_Check2i(i32 noundef %0) #4 personality ptr @__gxx_personality_v0 {
  %2 = alloca i32, align 4
  %3 = alloca %"struct.google::logging::internal::LogMessageVoidify", align 1
  %4 = alloca %"class.google::LogMessageFatal", align 8
  %5 = alloca i1, align 1
  %6 = alloca ptr, align 8
  %7 = alloca i32, align 4
  %8 = alloca %"struct.google::logging::internal::LogMessageVoidify", align 1
  %9 = alloca %"class.google::LogMessageFatal", align 8
  %10 = alloca i1, align 1
  %11 = alloca %"struct.google::logging::internal::LogMessageVoidify", align 1
  %12 = alloca %"class.google::LogMessageFatal", align 8
  %13 = alloca i1, align 1
  %14 = alloca %"struct.google::logging::internal::LogMessageVoidify", align 1
  %15 = alloca %"class.google::LogMessageFatal", align 8
  %16 = alloca i1, align 1
  %17 = alloca %"struct.google::logging::internal::LogMessageVoidify", align 1
  %18 = alloca %"class.google::LogMessageFatal", align 8
  %19 = alloca i1, align 1
  %20 = alloca %"struct.google::logging::internal::LogMessageVoidify", align 1
  %21 = alloca %"class.google::LogMessageFatal", align 8
  %22 = alloca i1, align 1
  %23 = alloca %"struct.google::logging::internal::LogMessageVoidify", align 1
  %24 = alloca %"class.google::LogMessageFatal", align 8
  %25 = alloca i1, align 1
  %26 = alloca %"struct.google::logging::internal::LogMessageVoidify", align 1
  %27 = alloca %"class.google::LogMessageFatal", align 8
  %28 = alloca i1, align 1
  store i32 %0, ptr %2, align 4
  %29 = load i32, ptr %2, align 4
  %30 = icmp eq i32 %29, 17
  br i1 %30, label %31, label %32

31:                                               ; preds = %1
  store i32 5, ptr @_ZL1x, align 4
  br label %32

32:                                               ; preds = %31, %1
  br label %33

33:                                               ; preds = %225, %32
  %34 = load i32, ptr %2, align 4
  %35 = add nsw i32 %34, -1
  store i32 %35, ptr %2, align 4
  %36 = icmp sgt i32 %34, 0
  br i1 %36, label %37, label %230

37:                                               ; preds = %33
  %38 = load i32, ptr %2, align 4
  %39 = load i32, ptr @_ZL1x, align 4
  %40 = icmp sge i32 %38, %39
  %41 = xor i1 %40, true
  store i1 false, ptr %5, align 1
  br i1 %41, label %43, label %42

42:                                               ; preds = %37
  br label %48

43:                                               ; preds = %37
  call void @_ZN6google15LogMessageFatalC1EPKci(ptr noundef nonnull align 8 dereferenceable(96) %4, ptr noundef @.str.32, i32 noundef 160)
  store i1 true, ptr %5, align 1
  %44 = invoke noundef nonnull align 8 dereferenceable(8) ptr @_ZN6google10LogMessage6streamEv(ptr noundef nonnull align 8 dereferenceable(96) %4)
          to label %45 unwind label %51

45:                                               ; preds = %43
  %46 = invoke noundef nonnull align 8 dereferenceable(8) ptr @_ZStlsISt11char_traitsIcEERSt13basic_ostreamIcT_ES5_PKc(ptr noundef nonnull align 8 dereferenceable(8) %44, ptr noundef @.str.217)
          to label %47 unwind label %51

47:                                               ; preds = %45
  call void @_ZN6google7logging8internal17LogMessageVoidifyanERSo(ptr noundef nonnull align 1 dereferenceable(1) %3, ptr noundef nonnull align 8 dereferenceable(8) %46) #3
  br label %48

48:                                               ; preds = %47, %42
  %49 = load i1, ptr %5, align 1
  br i1 %49, label %50, label %57

50:                                               ; preds = %48
  call void @_ZN6google15LogMessageFatalD1Ev(ptr noundef nonnull align 8 dereferenceable(96) %4) #26
  unreachable

51:                                               ; preds = %45, %43
  %52 = landingpad { ptr, i32 }
          cleanup
  %53 = extractvalue { ptr, i32 } %52, 0
  store ptr %53, ptr %6, align 8
  %54 = extractvalue { ptr, i32 } %52, 1
  store i32 %54, ptr %7, align 4
  %55 = load i1, ptr %5, align 1
  br i1 %55, label %71, label %74

56:                                               ; No predecessors!
  br label %57

57:                                               ; preds = %56, %48
  %58 = load i32, ptr %2, align 4
  %59 = load i32, ptr @_ZL1x, align 4
  %60 = icmp sge i32 %58, %59
  %61 = xor i1 %60, true
  store i1 false, ptr %10, align 1
  br i1 %61, label %63, label %62

62:                                               ; preds = %57
  br label %68

63:                                               ; preds = %57
  call void @_ZN6google15LogMessageFatalC1EPKci(ptr noundef nonnull align 8 dereferenceable(96) %9, ptr noundef @.str.32, i32 noundef 161)
  store i1 true, ptr %10, align 1
  %64 = invoke noundef nonnull align 8 dereferenceable(8) ptr @_ZN6google10LogMessage6streamEv(ptr noundef nonnull align 8 dereferenceable(96) %9)
          to label %65 unwind label %75

65:                                               ; preds = %63
  %66 = invoke noundef nonnull align 8 dereferenceable(8) ptr @_ZStlsISt11char_traitsIcEERSt13basic_ostreamIcT_ES5_PKc(ptr noundef nonnull align 8 dereferenceable(8) %64, ptr noundef @.str.217)
          to label %67 unwind label %75

67:                                               ; preds = %65
  call void @_ZN6google7logging8internal17LogMessageVoidifyanERSo(ptr noundef nonnull align 1 dereferenceable(1) %8, ptr noundef nonnull align 8 dereferenceable(8) %66) #3
  br label %68

68:                                               ; preds = %67, %62
  %69 = load i1, ptr %10, align 1
  br i1 %69, label %70, label %81

70:                                               ; preds = %68
  call void @_ZN6google15LogMessageFatalD1Ev(ptr noundef nonnull align 8 dereferenceable(96) %9) #26
  unreachable

71:                                               ; preds = %51
  invoke void @_ZN6google15LogMessageFatalD1Ev(ptr noundef nonnull align 8 dereferenceable(96) %4) #26
          to label %72 unwind label %236

72:                                               ; preds = %71
  unreachable

73:                                               ; No predecessors!
  br label %74

74:                                               ; preds = %73, %51
  br label %231

75:                                               ; preds = %65, %63
  %76 = landingpad { ptr, i32 }
          cleanup
  %77 = extractvalue { ptr, i32 } %76, 0
  store ptr %77, ptr %6, align 8
  %78 = extractvalue { ptr, i32 } %76, 1
  store i32 %78, ptr %7, align 4
  %79 = load i1, ptr %10, align 1
  br i1 %79, label %95, label %98

80:                                               ; No predecessors!
  br label %81

81:                                               ; preds = %80, %68
  %82 = load i32, ptr %2, align 4
  %83 = load i32, ptr @_ZL1x, align 4
  %84 = icmp sge i32 %82, %83
  %85 = xor i1 %84, true
  store i1 false, ptr %13, align 1
  br i1 %85, label %87, label %86

86:                                               ; preds = %81
  br label %92

87:                                               ; preds = %81
  call void @_ZN6google15LogMessageFatalC1EPKci(ptr noundef nonnull align 8 dereferenceable(96) %12, ptr noundef @.str.32, i32 noundef 162)
  store i1 true, ptr %13, align 1
  %88 = invoke noundef nonnull align 8 dereferenceable(8) ptr @_ZN6google10LogMessage6streamEv(ptr noundef nonnull align 8 dereferenceable(96) %12)
          to label %89 unwind label %99

89:                                               ; preds = %87
  %90 = invoke noundef nonnull align 8 dereferenceable(8) ptr @_ZStlsISt11char_traitsIcEERSt13basic_ostreamIcT_ES5_PKc(ptr noundef nonnull align 8 dereferenceable(8) %88, ptr noundef @.str.217)
          to label %91 unwind label %99

91:                                               ; preds = %89
  call void @_ZN6google7logging8internal17LogMessageVoidifyanERSo(ptr noundef nonnull align 1 dereferenceable(1) %11, ptr noundef nonnull align 8 dereferenceable(8) %90) #3
  br label %92

92:                                               ; preds = %91, %86
  %93 = load i1, ptr %13, align 1
  br i1 %93, label %94, label %105

94:                                               ; preds = %92
  call void @_ZN6google15LogMessageFatalD1Ev(ptr noundef nonnull align 8 dereferenceable(96) %12) #26
  unreachable

95:                                               ; preds = %75
  invoke void @_ZN6google15LogMessageFatalD1Ev(ptr noundef nonnull align 8 dereferenceable(96) %9) #26
          to label %96 unwind label %236

96:                                               ; preds = %95
  unreachable

97:                                               ; No predecessors!
  br label %98

98:                                               ; preds = %97, %75
  br label %231

99:                                               ; preds = %89, %87
  %100 = landingpad { ptr, i32 }
          cleanup
  %101 = extractvalue { ptr, i32 } %100, 0
  store ptr %101, ptr %6, align 8
  %102 = extractvalue { ptr, i32 } %100, 1
  store i32 %102, ptr %7, align 4
  %103 = load i1, ptr %13, align 1
  br i1 %103, label %119, label %122

104:                                              ; No predecessors!
  br label %105

105:                                              ; preds = %104, %92
  %106 = load i32, ptr %2, align 4
  %107 = load i32, ptr @_ZL1x, align 4
  %108 = icmp sge i32 %106, %107
  %109 = xor i1 %108, true
  store i1 false, ptr %16, align 1
  br i1 %109, label %111, label %110

110:                                              ; preds = %105
  br label %116

111:                                              ; preds = %105
  call void @_ZN6google15LogMessageFatalC1EPKci(ptr noundef nonnull align 8 dereferenceable(96) %15, ptr noundef @.str.32, i32 noundef 163)
  store i1 true, ptr %16, align 1
  %112 = invoke noundef nonnull align 8 dereferenceable(8) ptr @_ZN6google10LogMessage6streamEv(ptr noundef nonnull align 8 dereferenceable(96) %15)
          to label %113 unwind label %123

113:                                              ; preds = %111
  %114 = invoke noundef nonnull align 8 dereferenceable(8) ptr @_ZStlsISt11char_traitsIcEERSt13basic_ostreamIcT_ES5_PKc(ptr noundef nonnull align 8 dereferenceable(8) %112, ptr noundef @.str.217)
          to label %115 unwind label %123

115:                                              ; preds = %113
  call void @_ZN6google7logging8internal17LogMessageVoidifyanERSo(ptr noundef nonnull align 1 dereferenceable(1) %14, ptr noundef nonnull align 8 dereferenceable(8) %114) #3
  br label %116

116:                                              ; preds = %115, %110
  %117 = load i1, ptr %16, align 1
  br i1 %117, label %118, label %129

118:                                              ; preds = %116
  call void @_ZN6google15LogMessageFatalD1Ev(ptr noundef nonnull align 8 dereferenceable(96) %15) #26
  unreachable

119:                                              ; preds = %99
  invoke void @_ZN6google15LogMessageFatalD1Ev(ptr noundef nonnull align 8 dereferenceable(96) %12) #26
          to label %120 unwind label %236

120:                                              ; preds = %119
  unreachable

121:                                              ; No predecessors!
  br label %122

122:                                              ; preds = %121, %99
  br label %231

123:                                              ; preds = %113, %111
  %124 = landingpad { ptr, i32 }
          cleanup
  %125 = extractvalue { ptr, i32 } %124, 0
  store ptr %125, ptr %6, align 8
  %126 = extractvalue { ptr, i32 } %124, 1
  store i32 %126, ptr %7, align 4
  %127 = load i1, ptr %16, align 1
  br i1 %127, label %143, label %146

128:                                              ; No predecessors!
  br label %129

129:                                              ; preds = %128, %116
  %130 = load i32, ptr %2, align 4
  %131 = load i32, ptr @_ZL1x, align 4
  %132 = icmp sge i32 %130, %131
  %133 = xor i1 %132, true
  store i1 false, ptr %19, align 1
  br i1 %133, label %135, label %134

134:                                              ; preds = %129
  br label %140

135:                                              ; preds = %129
  call void @_ZN6google15LogMessageFatalC1EPKci(ptr noundef nonnull align 8 dereferenceable(96) %18, ptr noundef @.str.32, i32 noundef 164)
  store i1 true, ptr %19, align 1
  %136 = invoke noundef nonnull align 8 dereferenceable(8) ptr @_ZN6google10LogMessage6streamEv(ptr noundef nonnull align 8 dereferenceable(96) %18)
          to label %137 unwind label %147

137:                                              ; preds = %135
  %138 = invoke noundef nonnull align 8 dereferenceable(8) ptr @_ZStlsISt11char_traitsIcEERSt13basic_ostreamIcT_ES5_PKc(ptr noundef nonnull align 8 dereferenceable(8) %136, ptr noundef @.str.217)
          to label %139 unwind label %147

139:                                              ; preds = %137
  call void @_ZN6google7logging8internal17LogMessageVoidifyanERSo(ptr noundef nonnull align 1 dereferenceable(1) %17, ptr noundef nonnull align 8 dereferenceable(8) %138) #3
  br label %140

140:                                              ; preds = %139, %134
  %141 = load i1, ptr %19, align 1
  br i1 %141, label %142, label %153

142:                                              ; preds = %140
  call void @_ZN6google15LogMessageFatalD1Ev(ptr noundef nonnull align 8 dereferenceable(96) %18) #26
  unreachable

143:                                              ; preds = %123
  invoke void @_ZN6google15LogMessageFatalD1Ev(ptr noundef nonnull align 8 dereferenceable(96) %15) #26
          to label %144 unwind label %236

144:                                              ; preds = %143
  unreachable

145:                                              ; No predecessors!
  br label %146

146:                                              ; preds = %145, %123
  br label %231

147:                                              ; preds = %137, %135
  %148 = landingpad { ptr, i32 }
          cleanup
  %149 = extractvalue { ptr, i32 } %148, 0
  store ptr %149, ptr %6, align 8
  %150 = extractvalue { ptr, i32 } %148, 1
  store i32 %150, ptr %7, align 4
  %151 = load i1, ptr %19, align 1
  br i1 %151, label %167, label %170

152:                                              ; No predecessors!
  br label %153

153:                                              ; preds = %152, %140
  %154 = load i32, ptr %2, align 4
  %155 = load i32, ptr @_ZL1x, align 4
  %156 = icmp sge i32 %154, %155
  %157 = xor i1 %156, true
  store i1 false, ptr %22, align 1
  br i1 %157, label %159, label %158

158:                                              ; preds = %153
  br label %164

159:                                              ; preds = %153
  call void @_ZN6google15LogMessageFatalC1EPKci(ptr noundef nonnull align 8 dereferenceable(96) %21, ptr noundef @.str.32, i32 noundef 165)
  store i1 true, ptr %22, align 1
  %160 = invoke noundef nonnull align 8 dereferenceable(8) ptr @_ZN6google10LogMessage6streamEv(ptr noundef nonnull align 8 dereferenceable(96) %21)
          to label %161 unwind label %171

161:                                              ; preds = %159
  %162 = invoke noundef nonnull align 8 dereferenceable(8) ptr @_ZStlsISt11char_traitsIcEERSt13basic_ostreamIcT_ES5_PKc(ptr noundef nonnull align 8 dereferenceable(8) %160, ptr noundef @.str.217)
          to label %163 unwind label %171

163:                                              ; preds = %161
  call void @_ZN6google7logging8internal17LogMessageVoidifyanERSo(ptr noundef nonnull align 1 dereferenceable(1) %20, ptr noundef nonnull align 8 dereferenceable(8) %162) #3
  br label %164

164:                                              ; preds = %163, %158
  %165 = load i1, ptr %22, align 1
  br i1 %165, label %166, label %177

166:                                              ; preds = %164
  call void @_ZN6google15LogMessageFatalD1Ev(ptr noundef nonnull align 8 dereferenceable(96) %21) #26
  unreachable

167:                                              ; preds = %147
  invoke void @_ZN6google15LogMessageFatalD1Ev(ptr noundef nonnull align 8 dereferenceable(96) %18) #26
          to label %168 unwind label %236

168:                                              ; preds = %167
  unreachable

169:                                              ; No predecessors!
  br label %170

170:                                              ; preds = %169, %147
  br label %231

171:                                              ; preds = %161, %159
  %172 = landingpad { ptr, i32 }
          cleanup
  %173 = extractvalue { ptr, i32 } %172, 0
  store ptr %173, ptr %6, align 8
  %174 = extractvalue { ptr, i32 } %172, 1
  store i32 %174, ptr %7, align 4
  %175 = load i1, ptr %22, align 1
  br i1 %175, label %191, label %194

176:                                              ; No predecessors!
  br label %177

177:                                              ; preds = %176, %164
  %178 = load i32, ptr %2, align 4
  %179 = load i32, ptr @_ZL1x, align 4
  %180 = icmp sge i32 %178, %179
  %181 = xor i1 %180, true
  store i1 false, ptr %25, align 1
  br i1 %181, label %183, label %182

182:                                              ; preds = %177
  br label %188

183:                                              ; preds = %177
  call void @_ZN6google15LogMessageFatalC1EPKci(ptr noundef nonnull align 8 dereferenceable(96) %24, ptr noundef @.str.32, i32 noundef 166)
  store i1 true, ptr %25, align 1
  %184 = invoke noundef nonnull align 8 dereferenceable(8) ptr @_ZN6google10LogMessage6streamEv(ptr noundef nonnull align 8 dereferenceable(96) %24)
          to label %185 unwind label %195

185:                                              ; preds = %183
  %186 = invoke noundef nonnull align 8 dereferenceable(8) ptr @_ZStlsISt11char_traitsIcEERSt13basic_ostreamIcT_ES5_PKc(ptr noundef nonnull align 8 dereferenceable(8) %184, ptr noundef @.str.217)
          to label %187 unwind label %195

187:                                              ; preds = %185
  call void @_ZN6google7logging8internal17LogMessageVoidifyanERSo(ptr noundef nonnull align 1 dereferenceable(1) %23, ptr noundef nonnull align 8 dereferenceable(8) %186) #3
  br label %188

188:                                              ; preds = %187, %182
  %189 = load i1, ptr %25, align 1
  br i1 %189, label %190, label %201

190:                                              ; preds = %188
  call void @_ZN6google15LogMessageFatalD1Ev(ptr noundef nonnull align 8 dereferenceable(96) %24) #26
  unreachable

191:                                              ; preds = %171
  invoke void @_ZN6google15LogMessageFatalD1Ev(ptr noundef nonnull align 8 dereferenceable(96) %21) #26
          to label %192 unwind label %236

192:                                              ; preds = %191
  unreachable

193:                                              ; No predecessors!
  br label %194

194:                                              ; preds = %193, %171
  br label %231

195:                                              ; preds = %185, %183
  %196 = landingpad { ptr, i32 }
          cleanup
  %197 = extractvalue { ptr, i32 } %196, 0
  store ptr %197, ptr %6, align 8
  %198 = extractvalue { ptr, i32 } %196, 1
  store i32 %198, ptr %7, align 4
  %199 = load i1, ptr %25, align 1
  br i1 %199, label %215, label %218

200:                                              ; No predecessors!
  br label %201

201:                                              ; preds = %200, %188
  %202 = load i32, ptr %2, align 4
  %203 = load i32, ptr @_ZL1x, align 4
  %204 = icmp sge i32 %202, %203
  %205 = xor i1 %204, true
  store i1 false, ptr %28, align 1
  br i1 %205, label %207, label %206

206:                                              ; preds = %201
  br label %212

207:                                              ; preds = %201
  call void @_ZN6google15LogMessageFatalC1EPKci(ptr noundef nonnull align 8 dereferenceable(96) %27, ptr noundef @.str.32, i32 noundef 167)
  store i1 true, ptr %28, align 1
  %208 = invoke noundef nonnull align 8 dereferenceable(8) ptr @_ZN6google10LogMessage6streamEv(ptr noundef nonnull align 8 dereferenceable(96) %27)
          to label %209 unwind label %219

209:                                              ; preds = %207
  %210 = invoke noundef nonnull align 8 dereferenceable(8) ptr @_ZStlsISt11char_traitsIcEERSt13basic_ostreamIcT_ES5_PKc(ptr noundef nonnull align 8 dereferenceable(8) %208, ptr noundef @.str.217)
          to label %211 unwind label %219

211:                                              ; preds = %209
  call void @_ZN6google7logging8internal17LogMessageVoidifyanERSo(ptr noundef nonnull align 1 dereferenceable(1) %26, ptr noundef nonnull align 8 dereferenceable(8) %210) #3
  br label %212

212:                                              ; preds = %211, %206
  %213 = load i1, ptr %28, align 1
  br i1 %213, label %214, label %225

214:                                              ; preds = %212
  call void @_ZN6google15LogMessageFatalD1Ev(ptr noundef nonnull align 8 dereferenceable(96) %27) #26
  unreachable

215:                                              ; preds = %195
  invoke void @_ZN6google15LogMessageFatalD1Ev(ptr noundef nonnull align 8 dereferenceable(96) %24) #26
          to label %216 unwind label %236

216:                                              ; preds = %215
  unreachable

217:                                              ; No predecessors!
  br label %218

218:                                              ; preds = %217, %195
  br label %231

219:                                              ; preds = %209, %207
  %220 = landingpad { ptr, i32 }
          cleanup
  %221 = extractvalue { ptr, i32 } %220, 0
  store ptr %221, ptr %6, align 8
  %222 = extractvalue { ptr, i32 } %220, 1
  store i32 %222, ptr %7, align 4
  %223 = load i1, ptr %28, align 1
  br i1 %223, label %226, label %229

224:                                              ; No predecessors!
  br label %225

225:                                              ; preds = %224, %212
  br label %33, !llvm.loop !8

226:                                              ; preds = %219
  invoke void @_ZN6google15LogMessageFatalD1Ev(ptr noundef nonnull align 8 dereferenceable(96) %27) #26
          to label %227 unwind label %236

227:                                              ; preds = %226
  unreachable

228:                                              ; No predecessors!
  br label %229

229:                                              ; preds = %228, %219
  br label %231

230:                                              ; preds = %33
  ret void

231:                                              ; preds = %229, %218, %194, %170, %146, %122, %98, %74
  %232 = load ptr, ptr %6, align 8
  %233 = load i32, ptr %7, align 4
  %234 = insertvalue { ptr, i32 } poison, ptr %232, 0
  %235 = insertvalue { ptr, i32 } %234, i32 %233, 1
  resume { ptr, i32 } %235

236:                                              ; preds = %226, %215, %191, %167, %143, %119, %95, %71
  %237 = landingpad { ptr, i32 }
          catch ptr null
  %238 = extractvalue { ptr, i32 } %237, 0
  call void @__clang_call_terminate(ptr %238) #24
  unreachable
}