; Function Attrs: mustprogress uwtable
define internal void @_ZL9BM_Check2i(i32 noundef %0) #3 personality ptr @__gxx_personality_v0 {
  %2 = alloca %"class.google::LogMessageFatal", align 8
  %3 = icmp eq i32 %0, 17
  br i1 %3, label %5, label %._crit_edge

._crit_edge:                                      ; preds = %1
  %.b43.pre = load i1, ptr @_ZL1x, align 4
  %.b43.pre.fr = freeze i1 %.b43.pre
  %4 = select i1 %.b43.pre.fr, i32 5, i32 -1
  br label %.critedge64

5:                                                ; preds = %1
  store i1 true, ptr @_ZL1x, align 4
  br label %.critedge64

.critedge64:                                      ; preds = %5, %._crit_edge
  %.b37 = phi i32 [ %4, %._crit_edge ], [ 5, %5 ]
  %smin = tail call i32 @llvm.smin.i32(i32 %0, i32 0)
  %6 = sub i32 %0, %smin
  %smin65 = tail call i32 @llvm.smin.i32(i32 %.b37, i32 %0)
  %7 = sub i32 %0, %smin65
  %.not.not = icmp ugt i32 %6, %7
  br i1 %.not.not, label %8, label %16

8:                                                ; preds = %.critedge64
  call void @_ZN6google15LogMessageFatalC1EPKci(ptr noundef nonnull align 8 dereferenceable(96) %2, ptr noundef nonnull @.str.32, i32 noundef 160)
  %9 = invoke noundef nonnull align 8 dereferenceable(8) ptr @_ZN6google10LogMessage6streamEv(ptr noundef nonnull align 8 dereferenceable(96) %2)
          to label %10 unwind label %13

10:                                               ; preds = %8
  %11 = invoke noundef nonnull align 8 dereferenceable(8) ptr @_ZStlsISt11char_traitsIcEERSt13basic_ostreamIcT_ES5_PKc(ptr noundef nonnull align 8 dereferenceable(8) %9, ptr noundef nonnull @.str.217)
          to label %12 unwind label %13

12:                                               ; preds = %10
  call void @_ZN6google15LogMessageFatalD1Ev(ptr noundef nonnull align 8 dereferenceable(96) %2) #36
  unreachable

13:                                               ; preds = %10, %8
  %14 = landingpad { ptr, i32 }
          cleanup
  invoke void @_ZN6google15LogMessageFatalD1Ev(ptr noundef nonnull align 8 dereferenceable(96) %2) #36
          to label %15 unwind label %17

15:                                               ; preds = %13
  unreachable

16:                                               ; preds = %.critedge64
  ret void

17:                                               ; preds = %13
  %18 = landingpad { ptr, i32 }
          catch ptr null
  %19 = extractvalue { ptr, i32 } %18, 0
  call void @__clang_call_terminate(ptr %19) #37
  unreachable
}